; ModuleID = '35/1817.c'
source_filename = "35/1817.c"
target datalayout = "e-m:e-p270:32:32-p271:32:32-p272:64:64-i64:64-f80:128-n8:16:32:64-S128"
target triple = "x86_64-pc-linux-gnu"

@.str = private unnamed_addr constant [6 x i8] c"%d,%d\00", align 1
@.str.1 = private unnamed_addr constant [3 x i8] c"%d\00", align 1
@array = common dso_local global [10 x [10 x i32]] zeroinitializer, align 16
@max = common dso_local global [10 x i32] zeroinitializer, align 16
@i = common dso_local global i32 0, align 4
@min = common dso_local global [10 x i32] zeroinitializer, align 16
@.str.2 = private unnamed_addr constant [6 x i8] c"%d+%d\00", align 1
@.str.3 = private unnamed_addr constant [3 x i8] c"No\00", align 1

; Function Attrs: noinline nounwind uwtable
define dso_local i32 @main() #0 {
  %1 = alloca i32, align 4
  %2 = alloca i32, align 4
  %3 = alloca i32, align 4
  %4 = alloca i32, align 4
  %5 = alloca i32, align 4
  %6 = alloca i32, align 4
  store i32 0, i32* %1, align 4
  store i32 -1, i32* %4, align 4
  %7 = call i32 (i8*, ...) @__isoc99_scanf(i8* getelementptr inbounds ([6 x i8], [6 x i8]* @.str, i64 0, i64 0), i32* %2, i32* %3)
  store i32 0, i32* %5, align 4
  br label %8

8:                                                ; preds = %29, %0
  %9 = load i32, i32* %5, align 4
  %10 = load i32, i32* %2, align 4
  %11 = icmp slt i32 %9, %10
  br i1 %11, label %12, label %32

12:                                               ; preds = %8
  store i32 0, i32* %6, align 4
  br label %13

13:                                               ; preds = %25, %12
  %14 = load i32, i32* %6, align 4
  %15 = load i32, i32* %3, align 4
  %16 = icmp slt i32 %14, %15
  br i1 %16, label %17, label %28

17:                                               ; preds = %13
  %18 = load i32, i32* %5, align 4
  %19 = sext i32 %18 to i64
  %20 = getelementptr inbounds [10 x [10 x i32]], [10 x [10 x i32]]* @array, i64 0, i64 %19
  %21 = load i32, i32* %6, align 4
  %22 = sext i32 %21 to i64
  %23 = getelementptr inbounds [10 x i32], [10 x i32]* %20, i64 0, i64 %22
  %24 = call i32 (i8*, ...) @__isoc99_scanf(i8* getelementptr inbounds ([3 x i8], [3 x i8]* @.str.1, i64 0, i64 0), i32* %23)
  br label %25

25:                                               ; preds = %17
  %26 = load i32, i32* %6, align 4
  %27 = add nsw i32 %26, 1
  store i32 %27, i32* %6, align 4
  br label %13

28:                                               ; preds = %13
  br label %29

29:                                               ; preds = %28
  %30 = load i32, i32* %5, align 4
  %31 = add nsw i32 %30, 1
  store i32 %31, i32* %5, align 4
  br label %8

32:                                               ; preds = %8
  store i32 0, i32* %5, align 4
  br label %33

33:                                               ; preds = %74, %32
  %34 = load i32, i32* %5, align 4
  %35 = load i32, i32* %2, align 4
  %36 = icmp slt i32 %34, %35
  br i1 %36, label %37, label %77

37:                                               ; preds = %33
  %38 = load i32, i32* %5, align 4
  %39 = sext i32 %38 to i64
  %40 = getelementptr inbounds [10 x i32], [10 x i32]* @max, i64 0, i64 %39
  store i32 0, i32* %40, align 4
  store i32 1, i32* @i, align 4
  br label %41

41:                                               ; preds = %70, %37
  %42 = load i32, i32* @i, align 4
  %43 = load i32, i32* %3, align 4
  %44 = icmp slt i32 %42, %43
  br i1 %44, label %45, label %73

45:                                               ; preds = %41
  %46 = load i32, i32* %5, align 4
  %47 = sext i32 %46 to i64
  %48 = getelementptr inbounds [10 x [10 x i32]], [10 x [10 x i32]]* @array, i64 0, i64 %47
  %49 = load i32, i32* %5, align 4
  %50 = sext i32 %49 to i64
  %51 = getelementptr inbounds [10 x i32], [10 x i32]* @max, i64 0, i64 %50
  %52 = load i32, i32* %51, align 4
  %53 = sext i32 %52 to i64
  %54 = getelementptr inbounds [10 x i32], [10 x i32]* %48, i64 0, i64 %53
  %55 = load i32, i32* %54, align 4
  %56 = load i32, i32* %5, align 4
  %57 = sext i32 %56 to i64
  %58 = getelementptr inbounds [10 x [10 x i32]], [10 x [10 x i32]]* @array, i64 0, i64 %57
  %59 = load i32, i32* @i, align 4
  %60 = sext i32 %59 to i64
  %61 = getelementptr inbounds [10 x i32], [10 x i32]* %58, i64 0, i64 %60
  %62 = load i32, i32* %61, align 4
  %63 = icmp slt i32 %55, %62
  br i1 %63, label %64, label %69

64:                                               ; preds = %45
  %65 = load i32, i32* @i, align 4
  %66 = load i32, i32* %5, align 4
  %67 = sext i32 %66 to i64
  %68 = getelementptr inbounds [10 x i32], [10 x i32]* @max, i64 0, i64 %67
  store i32 %65, i32* %68, align 4
  br label %69

69:                                               ; preds = %64, %45
  br label %70

70:                                               ; preds = %69
  %71 = load i32, i32* @i, align 4
  %72 = add nsw i32 %71, 1
  store i32 %72, i32* @i, align 4
  br label %41

73:                                               ; preds = %41
  br label %74

74:                                               ; preds = %73
  %75 = load i32, i32* %5, align 4
  %76 = add nsw i32 %75, 1
  store i32 %76, i32* %5, align 4
  br label %33

77:                                               ; preds = %33
  store i32 0, i32* %6, align 4
  br label %78

78:                                               ; preds = %119, %77
  %79 = load i32, i32* %6, align 4
  %80 = load i32, i32* %3, align 4
  %81 = icmp slt i32 %79, %80
  br i1 %81, label %82, label %122

82:                                               ; preds = %78
  %83 = load i32, i32* %6, align 4
  %84 = sext i32 %83 to i64
  %85 = getelementptr inbounds [10 x i32], [10 x i32]* @min, i64 0, i64 %84
  store i32 0, i32* %85, align 4
  store i32 0, i32* @i, align 4
  br label %86

86:                                               ; preds = %115, %82
  %87 = load i32, i32* @i, align 4
  %88 = load i32, i32* %2, align 4
  %89 = icmp slt i32 %87, %88
  br i1 %89, label %90, label %118

90:                                               ; preds = %86
  %91 = load i32, i32* %6, align 4
  %92 = sext i32 %91 to i64
  %93 = getelementptr inbounds [10 x i32], [10 x i32]* @min, i64 0, i64 %92
  %94 = load i32, i32* %93, align 4
  %95 = sext i32 %94 to i64
  %96 = getelementptr inbounds [10 x [10 x i32]], [10 x [10 x i32]]* @array, i64 0, i64 %95
  %97 = load i32, i32* %6, align 4
  %98 = sext i32 %97 to i64
  %99 = getelementptr inbounds [10 x i32], [10 x i32]* %96, i64 0, i64 %98
  %100 = load i32, i32* %99, align 4
  %101 = load i32, i32* @i, align 4
  %102 = sext i32 %101 to i64
  %103 = getelementptr inbounds [10 x [10 x i32]], [10 x [10 x i32]]* @array, i64 0, i64 %102
  %104 = load i32, i32* %6, align 4
  %105 = sext i32 %104 to i64
  %106 = getelementptr inbounds [10 x i32], [10 x i32]* %103, i64 0, i64 %105
  %107 = load i32, i32* %106, align 4
  %108 = icmp sgt i32 %100, %107
  br i1 %108, label %109, label %114

109:                                              ; preds = %90
  %110 = load i32, i32* @i, align 4
  %111 = load i32, i32* %6, align 4
  %112 = sext i32 %111 to i64
  %113 = getelementptr inbounds [10 x i32], [10 x i32]* @min, i64 0, i64 %112
  store i32 %110, i32* %113, align 4
  br label %114

114:                                              ; preds = %109, %90
  br label %115

115:                                              ; preds = %114
  %116 = load i32, i32* @i, align 4
  %117 = add nsw i32 %116, 1
  store i32 %117, i32* @i, align 4
  br label %86

118:                                              ; preds = %86
  br label %119

119:                                              ; preds = %118
  %120 = load i32, i32* %6, align 4
  %121 = add nsw i32 %120, 1
  store i32 %121, i32* %6, align 4
  br label %78

122:                                              ; preds = %78
  store i32 0, i32* %5, align 4
  br label %123

123:                                              ; preds = %145, %122
  %124 = load i32, i32* %5, align 4
  %125 = load i32, i32* %2, align 4
  %126 = icmp slt i32 %124, %125
  br i1 %126, label %127, label %148

127:                                              ; preds = %123
  %128 = load i32, i32* %5, align 4
  %129 = sext i32 %128 to i64
  %130 = getelementptr inbounds [10 x i32], [10 x i32]* @max, i64 0, i64 %129
  %131 = load i32, i32* %130, align 4
  %132 = sext i32 %131 to i64
  %133 = getelementptr inbounds [10 x i32], [10 x i32]* @min, i64 0, i64 %132
  %134 = load i32, i32* %133, align 4
  %135 = load i32, i32* %5, align 4
  %136 = icmp eq i32 %134, %135
  br i1 %136, label %137, label %144

137:                                              ; preds = %127
  %138 = load i32, i32* %5, align 4
  %139 = load i32, i32* %5, align 4
  %140 = sext i32 %139 to i64
  %141 = getelementptr inbounds [10 x i32], [10 x i32]* @max, i64 0, i64 %140
  %142 = load i32, i32* %141, align 4
  %143 = call i32 (i8*, ...) @printf(i8* getelementptr inbounds ([6 x i8], [6 x i8]* @.str.2, i64 0, i64 0), i32 %138, i32 %142)
  store i32 1, i32* %4, align 4
  br label %148

144:                                              ; preds = %127
  br label %145

145:                                              ; preds = %144
  %146 = load i32, i32* %5, align 4
  %147 = add nsw i32 %146, 1
  store i32 %147, i32* %5, align 4
  br label %123

148:                                              ; preds = %137, %123
  %149 = load i32, i32* %4, align 4
  %150 = icmp eq i32 %149, -1
  br i1 %150, label %151, label %153

151:                                              ; preds = %148
  %152 = call i32 (i8*, ...) @printf(i8* getelementptr inbounds ([3 x i8], [3 x i8]* @.str.3, i64 0, i64 0))
  br label %153

153:                                              ; preds = %151, %148
  ret i32 0
}

declare dso_local i32 @__isoc99_scanf(i8*, ...) #1

declare dso_local i32 @printf(i8*, ...) #1


!llvm.module.flags = !{!0}
!llvm.ident = !{!1}

!0 = !{i32 1, !"wchar_size", i32 4}
!1 = !{!"clang version 10.0.0-4ubuntu1 "}
